(dp0
Vengine
p1
S'pdflatex'
p2
sVpackages
p3
c__builtin__
set
p4
((lp5
Vhyperref
p6
aVgraphicx
p7
atp8
Rp9
sVfiles_with_guttermarks
p10
g4
((lp11
V/Users/michaelcurtis/Desktop/MLsummer2015/dist_ml_convex/./report.tex
p12
aS'report.tex'
p13
atp14
Rp15
sVsynctex
p16
I01
s.