(dp0
Vengine
p1
S'pdflatex'
p2
sVpackages
p3
c__builtin__
set
p4
((lp5
Vhyperref
p6
aVfancybox
p7
aVamsmath
p8
aVamsthm
p9
aVpgfplots
p10
aVgraphicx
p11
atp12
Rp13
sVfiles_with_guttermarks
p14
g4
((lp15
V/usr/local/texlive/2015/texmf-dist/tex/latex/algorithms/algorithm.sty
p16
aV/Users/michaelcurtis/Desktop/MLsummer2015/dist_ml_convex/report.tex
p17
aV/Users/michaelcurtis/Desktop/MLsummer2015/dist_ml_convex/./report.tex
p18
aS'report.tex'
p19
atp20
Rp21
sVsynctex
p22
I01
s.